target datalayout = "e-m:e-p270:32:32-p271:32:32-p272:64:64-i64:64-i128:128-f80:128-n8:16:32:64-S128"
target triple = "x86_64-pc-linux-gnu"

; Function Attrs: nounwind uwtable
define dso_local void @pq_sendstring(ptr noundef %0, ptr noundef %1) #0 {
  %3 = alloca ptr, align 8
  %4 = alloca ptr, align 8
  %5 = alloca i32, align 4
  %6 = alloca ptr, align 8
  store ptr %0, ptr %3, align 8
  store ptr %1, ptr %4, align 8
  call void @llvm.lifetime.start.p0(i64 4, ptr %5) #8
  %7 = load ptr, ptr %4, align 8
  %8 = call i64 @strlen(ptr noundef %7) #9
  %9 = trunc i64 %8 to i32
  store i32 %9, ptr %5, align 4
  call void @llvm.lifetime.start.p0(i64 8, ptr %6) #8
  %10 = load ptr, ptr %4, align 8
  %11 = load i32, ptr %5, align 4
  %12 = call ptr @pg_server_to_client(ptr noundef %10, i32 noundef %11)
  store ptr %12, ptr %6, align 8
  %13 = load ptr, ptr %6, align 8
  %14 = load ptr, ptr %4, align 8
  %15 = icmp ne ptr %13, %14
  br i1 %15, label %16, label %25

16:                                               ; preds = %2
  %17 = load ptr, ptr %6, align 8
  %18 = call i64 @strlen(ptr noundef %17) #9
  %19 = trunc i64 %18 to i32
  store i32 %19, ptr %5, align 4
  %20 = load ptr, ptr %3, align 8
  %21 = load ptr, ptr %6, align 8
  %22 = load i32, ptr %5, align 4
  %23 = add i32 %22, 1
  call void @appendBinaryStringInfoNT(ptr noundef %20, ptr noundef %21, i32 noundef %23)
  %24 = load ptr, ptr %6, align 8
  call void @pfree(ptr noundef %24)
  br label %30

25:                                               ; preds = %2
  %26 = load ptr, ptr %3, align 8
  %27 = load ptr, ptr %4, align 8
  %28 = load i32, ptr %5, align 4
  %29 = add i32 %28, 1
  call void @appendBinaryStringInfoNT(ptr noundef %26, ptr noundef %27, i32 noundef %29)
  br label %30

30:                                               ; preds = %25, %16
  call void @llvm.lifetime.end.p0(i64 8, ptr %6) #8
  call void @llvm.lifetime.end.p0(i64 4, ptr %5) #8
  ret void
}