; Function Attrs: nounwind uwtable
define dso_local void @pq_sendstring(ptr noundef %0, ptr noundef %1) local_unnamed_addr #0 {
  %3 = tail call i64 @strlen(ptr noundef nonnull dereferenceable(1) %1) #10
  %4 = trunc i64 %3 to i32
  %5 = tail call ptr @pg_server_to_client(ptr noundef nonnull %1, i32 noundef %4) #9
  %.not = icmp eq ptr %5, %1
  br i1 %.not, label %10, label %6

6:                                                ; preds = %2
  %7 = tail call i64 @strlen(ptr noundef nonnull dereferenceable(1) %5) #10
  %8 = trunc i64 %7 to i32
  %9 = add i32 %8, 1
  tail call void @appendBinaryStringInfoNT(ptr noundef %0, ptr noundef nonnull %5, i32 noundef %9) #9
  tail call void @pfree(ptr noundef nonnull %5) #9
  br label %12

10:                                               ; preds = %2
  %11 = add i32 %4, 1
  tail call void @appendBinaryStringInfoNT(ptr noundef %0, ptr noundef nonnull %1, i32 noundef %11) #9
  br label %12

12:                                               ; preds = %10, %6
  ret void
}